target datalayout = "e-m:e-p270:32:32-p271:32:32-p272:64:64-i64:64-i128:128-f80:128-n8:16:32:64-S128"
target triple = "x86_64-pc-linux-gnu"

%struct._xmpp_attr_t = type { ptr, ptr, i32, i32, i8 }

; Function Attrs: null_pointer_is_valid sspstrong uwtable
define hidden ptr @xmpp_ep_init_attr_t(ptr noundef %0, ptr noundef %1, i32 noundef %2, i32 noundef %3) #0 {
  %5 = alloca ptr, align 8
  %6 = alloca ptr, align 8
  %7 = alloca i32, align 4
  %8 = alloca i32, align 4
  %9 = alloca ptr, align 8
  store ptr %0, ptr %5, align 8
  store ptr %1, ptr %6, align 8
  store i32 %2, ptr %7, align 4
  store i32 %3, ptr %8, align 4
  call void @llvm.lifetime.start.p0(i64 8, ptr %9) #8
  %10 = load ptr, ptr %5, align 8
  %11 = call noalias ptr @wmem_alloc(ptr noundef %10, i64 noundef 32) #9
  store ptr %11, ptr %9, align 8
  %12 = load ptr, ptr %6, align 8
  %13 = load ptr, ptr %9, align 8
  %14 = getelementptr inbounds nuw %struct._xmpp_attr_t, ptr %13, i32 0, i32 0
  store ptr %12, ptr %14, align 8
  %15 = load i32, ptr %7, align 4
  %16 = load ptr, ptr %9, align 8
  %17 = getelementptr inbounds nuw %struct._xmpp_attr_t, ptr %16, i32 0, i32 2
  store i32 %15, ptr %17, align 8
  %18 = load i32, ptr %8, align 4
  %19 = load ptr, ptr %9, align 8
  %20 = getelementptr inbounds nuw %struct._xmpp_attr_t, ptr %19, i32 0, i32 3
  store i32 %18, ptr %20, align 4
  %21 = load ptr, ptr %9, align 8
  %22 = getelementptr inbounds nuw %struct._xmpp_attr_t, ptr %21, i32 0, i32 1
  store ptr null, ptr %22, align 8
  %23 = load ptr, ptr %9, align 8
  call void @llvm.lifetime.end.p0(i64 8, ptr %9) #8
  ret ptr %23
}