; Function Attrs: null_pointer_is_valid sspstrong uwtable
define hidden noalias noundef ptr @xmpp_ep_init_attr_t(ptr noundef %0, ptr noundef %1, i32 noundef %2, i32 noundef %3) local_unnamed_addr #0 {
  %5 = tail call noalias dereferenceable_or_null(32) ptr @wmem_alloc(ptr noundef %0, i64 noundef 32) #10
  store ptr %1, ptr %5, align 8
  %6 = getelementptr inbounds nuw i8, ptr %5, i64 16
  store i32 %2, ptr %6, align 8
  %7 = getelementptr inbounds nuw i8, ptr %5, i64 20
  store i32 %3, ptr %7, align 4
  %8 = getelementptr inbounds nuw i8, ptr %5, i64 8
  store ptr null, ptr %8, align 8
  ret ptr %5
}